; Function Attrs: mustprogress nounwind uwtable
define internal fastcc noundef zeroext i1 @_ZL24outputQualifierIfPresentRN4llvm16itanium_demangle12OutputBufferENS_11ms_demangle10QualifiersES4_b(ptr nocapture noundef nonnull align 8 dereferenceable(36) %0, i8 noundef zeroext %1, i8 noundef zeroext %2, i1 noundef zeroext %3) unnamed_addr #0 {
  %5 = and i8 %2, %1
  %.not = icmp eq i8 %5, 0
  br i1 %.not, label %_ZL21outputSingleQualifierRN4llvm16itanium_demangle12OutputBufferENS_11ms_demangle10QualifiersE.exit, label %6

6:                                                ; preds = %4
  br i1 %3, label %7, label %_ZN4llvm16itanium_demangle12OutputBufferlsESt17basic_string_viewIcSt11char_traitsIcEE.exit

7:                                                ; preds = %6
  %8 = getelementptr inbounds nuw i8, ptr %0, i64 8
  %9 = load i64, ptr %8, align 8
  %10 = add i64 %9, 1
  %11 = getelementptr inbounds nuw i8, ptr %0, i64 16
  %12 = load i64, ptr %11, align 8
  %13 = icmp ugt i64 %10, %12
  %.pre.i.i = load ptr, ptr %0, align 8
  br i1 %13, label %14, label %_ZN4llvm16itanium_demangle12OutputBuffer4growEm.exit.i.i

14:                                               ; preds = %7
  %15 = add i64 %9, 993
  %16 = shl i64 %12, 1
  %spec.select.i.i.i = tail call i64 @llvm.umax.i64(i64 %16, i64 %15)
  store i64 %spec.select.i.i.i, ptr %11, align 8
  %17 = tail call ptr @realloc(ptr noundef %.pre.i.i, i64 noundef %spec.select.i.i.i) #16
  store ptr %17, ptr %0, align 8
  %18 = icmp eq ptr %17, null
  br i1 %18, label %19, label %._ZN4llvm16itanium_demangle12OutputBuffer4growEm.exit_crit_edge.i.i

._ZN4llvm16itanium_demangle12OutputBuffer4growEm.exit_crit_edge.i.i: ; preds = %14
  %.pre4.i.i = load i64, ptr %8, align 8
  br label %_ZN4llvm16itanium_demangle12OutputBuffer4growEm.exit.i.i

19:                                               ; preds = %14
  tail call void @abort() #17
  unreachable

_ZN4llvm16itanium_demangle12OutputBuffer4growEm.exit.i.i: ; preds = %._ZN4llvm16itanium_demangle12OutputBuffer4growEm.exit_crit_edge.i.i, %7
  %20 = phi i64 [ %9, %7 ], [ %.pre4.i.i, %._ZN4llvm16itanium_demangle12OutputBuffer4growEm.exit_crit_edge.i.i ]
  %21 = phi ptr [ %.pre.i.i, %7 ], [ %17, %._ZN4llvm16itanium_demangle12OutputBuffer4growEm.exit_crit_edge.i.i ]
  %22 = getelementptr inbounds i8, ptr %21, i64 %20
  store i8 32, ptr %22, align 1
  %23 = load i64, ptr %8, align 8
  %24 = add i64 %23, 1
  store i64 %24, ptr %8, align 8
  br label %_ZN4llvm16itanium_demangle12OutputBufferlsESt17basic_string_viewIcSt11char_traitsIcEE.exit

_ZN4llvm16itanium_demangle12OutputBufferlsESt17basic_string_viewIcSt11char_traitsIcEE.exit: ; preds = %_ZN4llvm16itanium_demangle12OutputBuffer4growEm.exit.i.i, %6
  switch i8 %2, label %_ZL21outputSingleQualifierRN4llvm16itanium_demangle12OutputBufferENS_11ms_demangle10QualifiersE.exit [
    i8 1, label %25
    i8 2, label %41
    i8 32, label %57
  ]

25:                                               ; preds = %_ZN4llvm16itanium_demangle12OutputBufferlsESt17basic_string_viewIcSt11char_traitsIcEE.exit
  %26 = getelementptr inbounds nuw i8, ptr %0, i64 8
  %27 = load i64, ptr %26, align 8
  %28 = add i64 %27, 5
  %29 = getelementptr inbounds nuw i8, ptr %0, i64 16
  %30 = load i64, ptr %29, align 8
  %31 = icmp ugt i64 %28, %30
  %.pre.i.i.i = load ptr, ptr %0, align 8
  br i1 %31, label %32, label %_ZN4llvm16itanium_demangle12OutputBuffer4growEm.exit.i.i.i

32:                                               ; preds = %25
  %33 = add i64 %27, 997
  %34 = shl i64 %30, 1
  %spec.select.i.i.i.i = tail call i64 @llvm.umax.i64(i64 %34, i64 %33)
  store i64 %spec.select.i.i.i.i, ptr %29, align 8
  %35 = tail call ptr @realloc(ptr noundef %.pre.i.i.i, i64 noundef %spec.select.i.i.i.i) #16
  store ptr %35, ptr %0, align 8
  %36 = icmp eq ptr %35, null
  br i1 %36, label %37, label %._ZN4llvm16itanium_demangle12OutputBuffer4growEm.exit_crit_edge.i.i.i

._ZN4llvm16itanium_demangle12OutputBuffer4growEm.exit_crit_edge.i.i.i: ; preds = %32
  %.pre4.i.i.i = load i64, ptr %26, align 8
  br label %_ZN4llvm16itanium_demangle12OutputBuffer4growEm.exit.i.i.i

37:                                               ; preds = %32
  tail call void @abort() #17
  unreachable

_ZN4llvm16itanium_demangle12OutputBuffer4growEm.exit.i.i.i: ; preds = %._ZN4llvm16itanium_demangle12OutputBuffer4growEm.exit_crit_edge.i.i.i, %25
  %38 = phi i64 [ %27, %25 ], [ %.pre4.i.i.i, %._ZN4llvm16itanium_demangle12OutputBuffer4growEm.exit_crit_edge.i.i.i ]
  %39 = phi ptr [ %.pre.i.i.i, %25 ], [ %35, %._ZN4llvm16itanium_demangle12OutputBuffer4growEm.exit_crit_edge.i.i.i ]
  %40 = getelementptr inbounds i8, ptr %39, i64 %38
  tail call void @llvm.memcpy.p0.p0.i64(ptr noundef nonnull align 1 dereferenceable(5) %40, ptr noundef nonnull align 1 dereferenceable(5) @.str.148, i64 5, i1 false)
  br label %_ZN4llvm16itanium_demangle12OutputBufferlsESt17basic_string_viewIcSt11char_traitsIcEE.exit.sink.split.i

41:                                               ; preds = %_ZN4llvm16itanium_demangle12OutputBufferlsESt17basic_string_viewIcSt11char_traitsIcEE.exit
  %42 = getelementptr inbounds nuw i8, ptr %0, i64 8
  %43 = load i64, ptr %42, align 8
  %44 = add i64 %43, 8
  %45 = getelementptr inbounds nuw i8, ptr %0, i64 16
  %46 = load i64, ptr %45, align 8
  %47 = icmp ugt i64 %44, %46
  %.pre.i.i4.i = load ptr, ptr %0, align 8
  br i1 %47, label %48, label %_ZN4llvm16itanium_demangle12OutputBuffer4growEm.exit.i.i5.i

48:                                               ; preds = %41
  %49 = add i64 %43, 1000
  %50 = shl i64 %46, 1
  %spec.select.i.i.i6.i = tail call i64 @llvm.umax.i64(i64 %50, i64 %49)
  store i64 %spec.select.i.i.i6.i, ptr %45, align 8
  %51 = tail call ptr @realloc(ptr noundef %.pre.i.i4.i, i64 noundef %spec.select.i.i.i6.i) #16
  store ptr %51, ptr %0, align 8
  %52 = icmp eq ptr %51, null
  br i1 %52, label %53, label %._ZN4llvm16itanium_demangle12OutputBuffer4growEm.exit_crit_edge.i.i7.i

._ZN4llvm16itanium_demangle12OutputBuffer4growEm.exit_crit_edge.i.i7.i: ; preds = %48
  %.pre4.i.i8.i = load i64, ptr %42, align 8
  br label %_ZN4llvm16itanium_demangle12OutputBuffer4growEm.exit.i.i5.i

53:                                               ; preds = %48
  tail call void @abort() #17
  unreachable

_ZN4llvm16itanium_demangle12OutputBuffer4growEm.exit.i.i5.i: ; preds = %._ZN4llvm16itanium_demangle12OutputBuffer4growEm.exit_crit_edge.i.i7.i, %41
  %54 = phi i64 [ %43, %41 ], [ %.pre4.i.i8.i, %._ZN4llvm16itanium_demangle12OutputBuffer4growEm.exit_crit_edge.i.i7.i ]
  %55 = phi ptr [ %.pre.i.i4.i, %41 ], [ %51, %._ZN4llvm16itanium_demangle12OutputBuffer4growEm.exit_crit_edge.i.i7.i ]
  %56 = getelementptr inbounds i8, ptr %55, i64 %54
  store i64 7308332243887091574, ptr %56, align 1
  br label %_ZN4llvm16itanium_demangle12OutputBufferlsESt17basic_string_viewIcSt11char_traitsIcEE.exit.sink.split.i

57:                                               ; preds = %_ZN4llvm16itanium_demangle12OutputBufferlsESt17basic_string_viewIcSt11char_traitsIcEE.exit
  %58 = getelementptr inbounds nuw i8, ptr %0, i64 8
  %59 = load i64, ptr %58, align 8
  %60 = add i64 %59, 10
  %61 = getelementptr inbounds nuw i8, ptr %0, i64 16
  %62 = load i64, ptr %61, align 8
  %63 = icmp ugt i64 %60, %62
  %.pre.i.i11.i = load ptr, ptr %0, align 8
  br i1 %63, label %64, label %_ZN4llvm16itanium_demangle12OutputBuffer4growEm.exit.i.i12.i

64:                                               ; preds = %57
  %65 = add i64 %59, 1002
  %66 = shl i64 %62, 1
  %spec.select.i.i.i13.i = tail call i64 @llvm.umax.i64(i64 %66, i64 %65)
  store i64 %spec.select.i.i.i13.i, ptr %61, align 8
  %67 = tail call ptr @realloc(ptr noundef %.pre.i.i11.i, i64 noundef %spec.select.i.i.i13.i) #16
  store ptr %67, ptr %0, align 8
  %68 = icmp eq ptr %67, null
  br i1 %68, label %69, label %._ZN4llvm16itanium_demangle12OutputBuffer4growEm.exit_crit_edge.i.i14.i

._ZN4llvm16itanium_demangle12OutputBuffer4growEm.exit_crit_edge.i.i14.i: ; preds = %64
  %.pre4.i.i15.i = load i64, ptr %58, align 8
  br label %_ZN4llvm16itanium_demangle12OutputBuffer4growEm.exit.i.i12.i

69:                                               ; preds = %64
  tail call void @abort() #17
  unreachable

_ZN4llvm16itanium_demangle12OutputBuffer4growEm.exit.i.i12.i: ; preds = %._ZN4llvm16itanium_demangle12OutputBuffer4growEm.exit_crit_edge.i.i14.i, %57
  %70 = phi i64 [ %59, %57 ], [ %.pre4.i.i15.i, %._ZN4llvm16itanium_demangle12OutputBuffer4growEm.exit_crit_edge.i.i14.i ]
  %71 = phi ptr [ %.pre.i.i11.i, %57 ], [ %67, %._ZN4llvm16itanium_demangle12OutputBuffer4growEm.exit_crit_edge.i.i14.i ]
  %72 = getelementptr inbounds i8, ptr %71, i64 %70
  tail call void @llvm.memcpy.p0.p0.i64(ptr noundef nonnull align 1 dereferenceable(10) %72, ptr noundef nonnull align 1 dereferenceable(10) @.str.150, i64 10, i1 false)
  br label %_ZN4llvm16itanium_demangle12OutputBufferlsESt17basic_string_viewIcSt11char_traitsIcEE.exit.sink.split.i

_ZN4llvm16itanium_demangle12OutputBufferlsESt17basic_string_viewIcSt11char_traitsIcEE.exit.sink.split.i: ; preds = %_ZN4llvm16itanium_demangle12OutputBuffer4growEm.exit.i.i12.i, %_ZN4llvm16itanium_demangle12OutputBuffer4growEm.exit.i.i5.i, %_ZN4llvm16itanium_demangle12OutputBuffer4growEm.exit.i.i.i
  %.sink.i = phi ptr [ %58, %_ZN4llvm16itanium_demangle12OutputBuffer4growEm.exit.i.i12.i ], [ %42, %_ZN4llvm16itanium_demangle12OutputBuffer4growEm.exit.i.i5.i ], [ %26, %_ZN4llvm16itanium_demangle12OutputBuffer4growEm.exit.i.i.i ]
  %.sink23.i = phi i64 [ 10, %_ZN4llvm16itanium_demangle12OutputBuffer4growEm.exit.i.i12.i ], [ 8, %_ZN4llvm16itanium_demangle12OutputBuffer4growEm.exit.i.i5.i ], [ 5, %_ZN4llvm16itanium_demangle12OutputBuffer4growEm.exit.i.i.i ]
  %73 = load i64, ptr %.sink.i, align 8
  %74 = add i64 %73, %.sink23.i
  store i64 %74, ptr %.sink.i, align 8
  br label %_ZL21outputSingleQualifierRN4llvm16itanium_demangle12OutputBufferENS_11ms_demangle10QualifiersE.exit

_ZL21outputSingleQualifierRN4llvm16itanium_demangle12OutputBufferENS_11ms_demangle10QualifiersE.exit: ; preds = %_ZN4llvm16itanium_demangle12OutputBufferlsESt17basic_string_viewIcSt11char_traitsIcEE.exit.sink.split.i, %_ZN4llvm16itanium_demangle12OutputBufferlsESt17basic_string_viewIcSt11char_traitsIcEE.exit, %4
  %.0 = phi i1 [ %3, %4 ], [ true, %_ZN4llvm16itanium_demangle12OutputBufferlsESt17basic_string_viewIcSt11char_traitsIcEE.exit ], [ true, %_ZN4llvm16itanium_demangle12OutputBufferlsESt17basic_string_viewIcSt11char_traitsIcEE.exit.sink.split.i ]
  ret i1 %.0
}